target datalayout = "e-m:e-p270:32:32-p271:32:32-p272:64:64-i64:64-i128:128-f80:128-n8:16:32:64-S128"
target triple = "x86_64-unknown-linux-gnu"

%"class.absl::debian2::string_view" = type { ptr, i64 }

; Function Attrs: mustprogress nounwind uwtable
define linkonce_odr noundef zeroext i1 @_ZN4absl7debian213ascii_isdigitEh(i8 noundef zeroext %c) #0 comdat {
entry:
  %c.addr = alloca i8, align 1
  store i8 %c, ptr %c.addr, align 1
  %0 = load i8, ptr %c.addr, align 1
  %conv = zext i8 %0 to i32
  %cmp = icmp sge i32 %conv, 48
  br i1 %cmp, label %land.rhs, label %land.end

land.rhs:                                         ; preds = %entry
  %1 = load i8, ptr %c.addr, align 1
  %conv1 = zext i8 %1 to i32
  %cmp2 = icmp sle i32 %conv1, 57
  br label %land.end

land.end:                                         ; preds = %land.rhs, %entry
  %2 = phi i1 [ false, %entry ], [ %cmp2, %land.rhs ]
  ret i1 %2
}

; Function Attrs: mustprogress nounwind uwtable
define linkonce_odr noundef i64 @_ZNK4absl7debian211string_view4sizeEv(ptr noundef nonnull align 8 dereferenceable(16) %this) #0 comdat align 2 {
entry:
  %this.addr = alloca ptr, align 8
  store ptr %this, ptr %this.addr, align 8
  %this1 = load ptr, ptr %this.addr, align 8
  %length_ = getelementptr inbounds %"class.absl::debian2::string_view", ptr %this1, i32 0, i32 1
  %0 = load i64, ptr %length_, align 8
  ret i64 %0
}

; Function Attrs: mustprogress nounwind uwtable
define linkonce_odr noundef ptr @_ZNK4absl7debian211string_view4dataEv(ptr noundef nonnull align 8 dereferenceable(16) %this) #0 comdat align 2 {
entry:
  %this.addr = alloca ptr, align 8
  store ptr %this, ptr %this.addr, align 8
  %this1 = load ptr, ptr %this.addr, align 8
  %ptr_ = getelementptr inbounds %"class.absl::debian2::string_view", ptr %this1, i32 0, i32 0
  %0 = load ptr, ptr %ptr_, align 8
  ret ptr %0
}

; Function Attrs: mustprogress uwtable
define noundef i32 @_ZN3re23RE211MaxSubmatchEN4absl7debian211string_viewE(ptr %rewrite.coerce0, i64 %rewrite.coerce1) #1 align 2 {
entry:
  %rewrite = alloca %"class.absl::debian2::string_view", align 8
  %max = alloca i32, align 4
  %s = alloca ptr, align 8
  %end = alloca ptr, align 8
  %c = alloca i32, align 4
  %n = alloca i32, align 4
  %0 = getelementptr inbounds { ptr, i64 }, ptr %rewrite, i32 0, i32 0
  store ptr %rewrite.coerce0, ptr %0, align 8
  %1 = getelementptr inbounds { ptr, i64 }, ptr %rewrite, i32 0, i32 1
  store i64 %rewrite.coerce1, ptr %1, align 8
  store i32 0, ptr %max, align 4
  %call = call noundef ptr @_ZNK4absl7debian211string_view4dataEv(ptr noundef nonnull align 8 dereferenceable(16) %rewrite) #16
  store ptr %call, ptr %s, align 8
  %2 = load ptr, ptr %s, align 8
  %call1 = call noundef i64 @_ZNK4absl7debian211string_view4sizeEv(ptr noundef nonnull align 8 dereferenceable(16) %rewrite) #16
  %add.ptr = getelementptr inbounds i8, ptr %2, i64 %call1
  store ptr %add.ptr, ptr %end, align 8
  br label %for.cond

for.cond:                                         ; preds = %for.inc, %entry
  %3 = load ptr, ptr %s, align 8
  %4 = load ptr, ptr %end, align 8
  %cmp = icmp ult ptr %3, %4
  br i1 %cmp, label %for.body, label %for.end

for.body:                                         ; preds = %for.cond
  %5 = load ptr, ptr %s, align 8
  %6 = load i8, ptr %5, align 1
  %conv = sext i8 %6 to i32
  %cmp2 = icmp eq i32 %conv, 92
  br i1 %cmp2, label %if.then, label %if.end11

if.then:                                          ; preds = %for.body
  %7 = load ptr, ptr %s, align 8
  %incdec.ptr = getelementptr inbounds i8, ptr %7, i32 1
  store ptr %incdec.ptr, ptr %s, align 8
  %8 = load ptr, ptr %s, align 8
  %9 = load ptr, ptr %end, align 8
  %cmp3 = icmp ult ptr %8, %9
  br i1 %cmp3, label %cond.true, label %cond.false

cond.true:                                        ; preds = %if.then
  %10 = load ptr, ptr %s, align 8
  %11 = load i8, ptr %10, align 1
  %conv4 = sext i8 %11 to i32
  br label %cond.end

cond.false:                                       ; preds = %if.then
  br label %cond.end

cond.end:                                         ; preds = %cond.false, %cond.true
  %cond = phi i32 [ %conv4, %cond.true ], [ -1, %cond.false ]
  store i32 %cond, ptr %c, align 4
  %12 = load i32, ptr %c, align 4
  %conv5 = trunc i32 %12 to i8
  %call6 = call noundef zeroext i1 @_ZN4absl7debian213ascii_isdigitEh(i8 noundef zeroext %conv5)
  br i1 %call6, label %if.then7, label %if.end10

if.then7:                                         ; preds = %cond.end
  %13 = load i32, ptr %c, align 4
  %sub = sub nsw i32 %13, 48
  store i32 %sub, ptr %n, align 4
  %14 = load i32, ptr %n, align 4
  %15 = load i32, ptr %max, align 4
  %cmp8 = icmp sgt i32 %14, %15
  br i1 %cmp8, label %if.then9, label %if.end

if.then9:                                         ; preds = %if.then7
  %16 = load i32, ptr %n, align 4
  store i32 %16, ptr %max, align 4
  br label %if.end

if.end:                                           ; preds = %if.then9, %if.then7
  br label %if.end10

if.end10:                                         ; preds = %if.end, %cond.end
  br label %if.end11

if.end11:                                         ; preds = %if.end10, %for.body
  br label %for.inc

for.inc:                                          ; preds = %if.end11
  %17 = load ptr, ptr %s, align 8
  %incdec.ptr12 = getelementptr inbounds i8, ptr %17, i32 1
  store ptr %incdec.ptr12, ptr %s, align 8
  br label %for.cond, !llvm.loop !7

for.end:                                          ; preds = %for.cond
  %18 = load i32, ptr %max, align 4
  ret i32 %18
}