; Function Attrs: mustprogress nofree norecurse nosync nounwind willreturn memory(argmem: read) uwtable
define noundef range(i32 0, 80) i32 @_ZN3re23RE211MaxSubmatchEN4absl7debian211string_viewE(ptr readonly %rewrite.coerce0, i64 %rewrite.coerce1) local_unnamed_addr #12 align 2 {
entry:
  %add.ptr = getelementptr inbounds i8, ptr %rewrite.coerce0, i64 %rewrite.coerce1
  %cmp13 = icmp sgt i64 %rewrite.coerce1, 0
  br i1 %cmp13, label %for.body, label %for.end

for.body:                                         ; preds = %entry, %for.inc
  %max.015 = phi i32 [ %max.1, %for.inc ], [ 0, %entry ]
  %s.014 = phi ptr [ %incdec.ptr12, %for.inc ], [ %rewrite.coerce0, %entry ]
  %0 = load i8, ptr %s.014, align 1
  %cmp2 = icmp eq i8 %0, 92
  br i1 %cmp2, label %if.then, label %for.inc

if.then:                                          ; preds = %for.body
  %incdec.ptr = getelementptr inbounds nuw i8, ptr %s.014, i64 1
  %cmp3 = icmp ult ptr %incdec.ptr, %add.ptr
  br i1 %cmp3, label %cond.end, label %for.inc

cond.end:                                         ; preds = %if.then
  %1 = load i8, ptr %incdec.ptr, align 1
  %2 = add i8 %1, -48
  %3 = icmp ult i8 %2, 10
  br i1 %3, label %if.then7, label %for.inc

if.then7:                                         ; preds = %cond.end
  %sub = zext nneg i8 %2 to i32
  %spec.select = tail call i32 @llvm.smax.i32(i32 %max.015, i32 %sub)
  br label %for.inc

for.inc:                                          ; preds = %if.then, %if.then7, %for.body, %cond.end
  %s.1 = phi ptr [ %incdec.ptr, %cond.end ], [ %s.014, %for.body ], [ %incdec.ptr, %if.then7 ], [ %incdec.ptr, %if.then ]
  %max.1 = phi i32 [ %max.015, %cond.end ], [ %max.015, %for.body ], [ %spec.select, %if.then7 ], [ %max.015, %if.then ]
  %incdec.ptr12 = getelementptr inbounds nuw i8, ptr %s.1, i64 1
  %cmp = icmp ult ptr %incdec.ptr12, %add.ptr
  br i1 %cmp, label %for.body, label %for.end, !llvm.loop !19

for.end:                                          ; preds = %for.inc, %entry
  %max.0.lcssa = phi i32 [ 0, %entry ], [ %max.1, %for.inc ]
  ret i32 %max.0.lcssa
}